target datalayout = "e-m:e-p270:32:32-p271:32:32-p272:64:64-i64:64-i128:128-f80:128-n8:16:32:64-S128"
target triple = "x86_64-pc-linux-gnu"

%"class.boost::core::basic_string_view" = type { ptr, i64 }
%"struct.boost::urls::encoding_opts" = type { i8, i8, i8 }
%class.anon = type { i8 }

; Function Attrs: inlinehint mustprogress nounwind uwtable
define linkonce_odr void @_ZSt9__advanceIPKclEvRT_T0_St26random_access_iterator_tag(ptr noundef nonnull align 8 dereferenceable(8) %0, i64 noundef %1) #6 comdat {
  %3 = alloca ptr, align 8
  %4 = alloca i64, align 8
  store ptr %0, ptr %3, align 8, !tbaa !3
  store i64 %1, ptr %4, align 8, !tbaa !8
  %5 = load i64, ptr %4, align 8, !tbaa !8
  %6 = call i1 @llvm.is.constant.i64(i64 %5)
  br i1 %6, label %7, label %14

7:                                                ; preds = %2
  %8 = load i64, ptr %4, align 8, !tbaa !8
  %9 = icmp eq i64 %8, 1
  br i1 %9, label %10, label %14

10:                                               ; preds = %7
  %11 = load ptr, ptr %3, align 8, !tbaa !3
  %12 = load ptr, ptr %11, align 8, !tbaa !3
  %13 = getelementptr inbounds nuw i8, ptr %12, i32 1
  store ptr %13, ptr %11, align 8, !tbaa !3
  br label %30

14:                                               ; preds = %7, %2
  %15 = load i64, ptr %4, align 8, !tbaa !8
  %16 = call i1 @llvm.is.constant.i64(i64 %15)
  br i1 %16, label %17, label %24

17:                                               ; preds = %14
  %18 = load i64, ptr %4, align 8, !tbaa !8
  %19 = icmp eq i64 %18, -1
  br i1 %19, label %20, label %24

20:                                               ; preds = %17
  %21 = load ptr, ptr %3, align 8, !tbaa !3
  %22 = load ptr, ptr %21, align 8, !tbaa !3
  %23 = getelementptr inbounds i8, ptr %22, i32 -1
  store ptr %23, ptr %21, align 8, !tbaa !3
  br label %29

24:                                               ; preds = %17, %14
  %25 = load i64, ptr %4, align 8, !tbaa !8
  %26 = load ptr, ptr %3, align 8, !tbaa !3
  %27 = load ptr, ptr %26, align 8, !tbaa !3
  %28 = getelementptr inbounds i8, ptr %27, i64 %25
  store ptr %28, ptr %26, align 8, !tbaa !3
  br label %29

29:                                               ; preds = %24, %20
  br label %30

30:                                               ; preds = %29, %10
  ret void
}

; Function Attrs: inlinehint mustprogress nounwind uwtable
define linkonce_odr void @_ZSt19__iterator_categoryIPKcENSt15iterator_traitsIT_E17iterator_categoryERKS3_(ptr noundef nonnull align 8 dereferenceable(8) %0) #6 comdat {
  %2 = alloca ptr, align 8
  store ptr %0, ptr %2, align 8, !tbaa !3
  ret void
}

; Function Attrs: inlinehint mustprogress uwtable
define linkonce_odr void @_ZSt7advanceIPKclEvRT_T0_(ptr noundef nonnull align 8 dereferenceable(8) %0, i64 noundef %1) #7 comdat {
  %3 = alloca ptr, align 8
  %4 = alloca i64, align 8
  %5 = alloca i64, align 8
  store ptr %0, ptr %3, align 8, !tbaa !3
  store i64 %1, ptr %4, align 8, !tbaa !8
  call void @llvm.lifetime.start.p0(i64 8, ptr %5) #16
  %6 = load i64, ptr %4, align 8, !tbaa !8
  store i64 %6, ptr %5, align 8, !tbaa !8
  %7 = load ptr, ptr %3, align 8, !tbaa !3
  %8 = load i64, ptr %5, align 8, !tbaa !8
  %9 = load ptr, ptr %3, align 8, !tbaa !3
  call void @_ZSt19__iterator_categoryIPKcENSt15iterator_traitsIT_E17iterator_categoryERKS3_(ptr noundef nonnull align 8 dereferenceable(8) %9)
  call void @_ZSt9__advanceIPKclEvRT_T0_St26random_access_iterator_tag(ptr noundef nonnull align 8 dereferenceable(8) %7, i64 noundef %8)
  call void @llvm.lifetime.end.p0(i64 8, ptr %5) #16
  ret void
}

; Function Attrs: mustprogress nounwind uwtable
define linkonce_odr hidden void @_ZN5boost4core17basic_string_viewIcEC2EPKcm(ptr noundef nonnull align 8 dereferenceable(16) %0, ptr noundef %1, i64 noundef %2) unnamed_addr #2 comdat align 2 {
  %4 = alloca ptr, align 8
  %5 = alloca ptr, align 8
  %6 = alloca i64, align 8
  store ptr %0, ptr %4, align 8, !tbaa !3
  store ptr %1, ptr %5, align 8, !tbaa !3
  store i64 %2, ptr %6, align 8, !tbaa !8
  %7 = load ptr, ptr %4, align 8
  %8 = getelementptr inbounds nuw %"class.boost::core::basic_string_view", ptr %7, i32 0, i32 0
  %9 = load ptr, ptr %5, align 8, !tbaa !3
  store ptr %9, ptr %8, align 8, !tbaa !10
  %10 = getelementptr inbounds nuw %"class.boost::core::basic_string_view", ptr %7, i32 0, i32 1
  %11 = load i64, ptr %6, align 8, !tbaa !8
  store i64 %11, ptr %10, align 8, !tbaa !12
  ret void
}

; Function Attrs: inlinehint mustprogress uwtable
define linkonce_odr noundef ptr @_ZSt4prevIPKcET_S2_NSt15iterator_traitsIS2_E15difference_typeE(ptr noundef %0, i64 noundef %1) #7 comdat {
  %3 = alloca ptr, align 8
  %4 = alloca i64, align 8
  store ptr %0, ptr %3, align 8, !tbaa !3
  store i64 %1, ptr %4, align 8, !tbaa !8
  %5 = load i64, ptr %4, align 8, !tbaa !8
  %6 = sub nsw i64 0, %5
  call void @_ZSt7advanceIPKclEvRT_T0_(ptr noundef nonnull align 8 dereferenceable(8) %3, i64 noundef %6)
  %7 = load ptr, ptr %3, align 8, !tbaa !3
  ret ptr %7
}

; Function Attrs: noinline noreturn nounwind uwtable
define linkonce_odr hidden void @__clang_call_terminate(ptr noundef %0) #0 comdat {
  %2 = call ptr @__cxa_begin_catch(ptr %0) #16
  call void @_ZSt9terminatev() #17
  unreachable
}

; Function Attrs: inlinehint mustprogress uwtable
define internal noundef zeroext i1 @"_ZZN5boost4urls6detail14path_ends_withENS_4core17basic_string_viewIcEES4_ENK3$_0clERPKcS8_Rc"(ptr noundef nonnull align 1 dereferenceable(1) %0, ptr noundef nonnull align 8 dereferenceable(8) %1, ptr noundef nonnull align 8 dereferenceable(8) %2, ptr noundef nonnull align 1 dereferenceable(1) %3) #7 align 2 {
  %5 = alloca i1, align 1
  %6 = alloca ptr, align 8
  %7 = alloca ptr, align 8
  %8 = alloca ptr, align 8
  %9 = alloca ptr, align 8
  %10 = alloca %"class.boost::core::basic_string_view", align 8
  %11 = alloca %"struct.boost::urls::encoding_opts", align 1
  %12 = alloca i24, align 4
  store ptr %0, ptr %6, align 8, !tbaa !3
  store ptr %1, ptr %7, align 8, !tbaa !3
  store ptr %2, ptr %8, align 8, !tbaa !3
  store ptr %3, ptr %9, align 8, !tbaa !3
  %13 = load ptr, ptr %8, align 8, !tbaa !3
  %14 = load ptr, ptr %13, align 8, !tbaa !3
  %15 = load ptr, ptr %7, align 8, !tbaa !3
  %16 = load ptr, ptr %15, align 8, !tbaa !3
  %17 = ptrtoint ptr %14 to i64
  %18 = ptrtoint ptr %16 to i64
  %19 = sub i64 %17, %18
  %20 = icmp slt i64 %19, 3
  br i1 %20, label %28, label %21

21:                                               ; preds = %4
  %22 = load ptr, ptr %8, align 8, !tbaa !3
  %23 = load ptr, ptr %22, align 8, !tbaa !3
  %24 = call noundef ptr @_ZSt4prevIPKcET_S2_NSt15iterator_traitsIS2_E15difference_typeE(ptr noundef %23, i64 noundef 3)
  %25 = load i8, ptr %24, align 1, !tbaa !7
  %26 = sext i8 %25 to i32
  %27 = icmp ne i32 %26, 37
  br i1 %27, label %28, label %34

28:                                               ; preds = %21, %4
  %29 = load ptr, ptr %8, align 8, !tbaa !3
  %30 = load ptr, ptr %29, align 8, !tbaa !3
  %31 = getelementptr inbounds i8, ptr %30, i32 -1
  store ptr %31, ptr %29, align 8, !tbaa !3
  %32 = load i8, ptr %31, align 1, !tbaa !7
  %33 = load ptr, ptr %9, align 8, !tbaa !3
  store i8 %32, ptr %33, align 1, !tbaa !7
  store i1 false, ptr %5, align 1
  br label %50

34:                                               ; preds = %21
  %35 = load ptr, ptr %9, align 8, !tbaa !3
  %36 = load ptr, ptr %9, align 8, !tbaa !3
  %37 = getelementptr inbounds i8, ptr %36, i64 1
  %38 = load ptr, ptr %8, align 8, !tbaa !3
  %39 = load ptr, ptr %38, align 8, !tbaa !3
  %40 = call noundef ptr @_ZSt4prevIPKcET_S2_NSt15iterator_traitsIS2_E15difference_typeE(ptr noundef %39, i64 noundef 3)
  call void @_ZN5boost4core17basic_string_viewIcEC2EPKcm(ptr noundef nonnull align 8 dereferenceable(16) %10, ptr noundef %40, i64 noundef 3) #16
  call void @_ZN5boost4urls13encoding_optsC1Ebbb(ptr noundef nonnull align 1 dereferenceable(3) %11, i1 noundef zeroext false, i1 noundef zeroext false, i1 noundef zeroext false) #16
  %41 = getelementptr inbounds nuw { ptr, i64 }, ptr %10, i32 0, i32 0
  %42 = load ptr, ptr %41, align 8
  %43 = getelementptr inbounds nuw { ptr, i64 }, ptr %10, i32 0, i32 1
  %44 = load i64, ptr %43, align 8
  call void @llvm.memcpy.p0.p0.i64(ptr align 4 %12, ptr align 1 %11, i64 3, i1 false)
  %45 = load i24, ptr %12, align 4
  %46 = call noundef i64 @_ZN5boost4urls6detail13decode_unsafeEPcPKcNS_4core17basic_string_viewIcEENS0_13encoding_optsE(ptr noundef %35, ptr noundef %37, ptr %42, i64 %44, i24 %45) #16
  %47 = load ptr, ptr %8, align 8, !tbaa !3
  %48 = load ptr, ptr %47, align 8, !tbaa !3
  %49 = getelementptr inbounds i8, ptr %48, i64 -3
  store ptr %49, ptr %47, align 8, !tbaa !3
  store i1 true, ptr %5, align 1
  br label %50

50:                                               ; preds = %34, %28
  %51 = load i1, ptr %5, align 1
  ret i1 %51
}

; Function Attrs: mustprogress nounwind uwtable
define linkonce_odr hidden noundef ptr @_ZNK5boost4core17basic_string_viewIcE3endEv(ptr noundef nonnull align 8 dereferenceable(16) %0) #2 comdat align 2 {
  %2 = alloca ptr, align 8
  store ptr %0, ptr %2, align 8, !tbaa !3
  %3 = load ptr, ptr %2, align 8
  %4 = getelementptr inbounds nuw %"class.boost::core::basic_string_view", ptr %3, i32 0, i32 0
  %5 = load ptr, ptr %4, align 8, !tbaa !10
  %6 = getelementptr inbounds nuw %"class.boost::core::basic_string_view", ptr %3, i32 0, i32 1
  %7 = load i64, ptr %6, align 8, !tbaa !12
  %8 = getelementptr inbounds nuw i8, ptr %5, i64 %7
  ret ptr %8
}

; Function Attrs: mustprogress nounwind uwtable
define linkonce_odr hidden noundef ptr @_ZNK5boost4core17basic_string_viewIcE5beginEv(ptr noundef nonnull align 8 dereferenceable(16) %0) #2 comdat align 2 {
  %2 = alloca ptr, align 8
  store ptr %0, ptr %2, align 8, !tbaa !3
  %3 = load ptr, ptr %2, align 8
  %4 = getelementptr inbounds nuw %"class.boost::core::basic_string_view", ptr %3, i32 0, i32 0
  %5 = load ptr, ptr %4, align 8, !tbaa !10
  ret ptr %5
}

; Function Attrs: mustprogress nounwind uwtable
define hidden noundef i64 @_ZN5boost4urls6detail14path_ends_withENS_4core17basic_string_viewIcEES4_(ptr %0, i64 %1, ptr %2, i64 %3) #2 personality ptr @__gxx_personality_v0 {
  %5 = alloca i64, align 8
  %6 = alloca %"class.boost::core::basic_string_view", align 8
  %7 = alloca %"class.boost::core::basic_string_view", align 8
  %8 = alloca %class.anon, align 1
  %9 = alloca ptr, align 8
  %10 = alloca ptr, align 8
  %11 = alloca ptr, align 8
  %12 = alloca ptr, align 8
  %13 = alloca i8, align 1
  %14 = alloca i8, align 1
  %15 = alloca i8, align 1
  %16 = alloca i32, align 4
  %17 = alloca i8, align 1
  %18 = alloca i64, align 8
  %19 = getelementptr inbounds nuw { ptr, i64 }, ptr %6, i32 0, i32 0
  store ptr %0, ptr %19, align 8
  %20 = getelementptr inbounds nuw { ptr, i64 }, ptr %6, i32 0, i32 1
  store i64 %1, ptr %20, align 8
  %21 = getelementptr inbounds nuw { ptr, i64 }, ptr %7, i32 0, i32 0
  store ptr %2, ptr %21, align 8
  %22 = getelementptr inbounds nuw { ptr, i64 }, ptr %7, i32 0, i32 1
  store i64 %3, ptr %22, align 8
  call void @llvm.lifetime.start.p0(i64 1, ptr %8) #16
  call void @llvm.lifetime.start.p0(i64 8, ptr %9) #16
  %23 = call noundef ptr @_ZNK5boost4core17basic_string_viewIcE5beginEv(ptr noundef nonnull align 8 dereferenceable(16) %6) #16
  store ptr %23, ptr %9, align 8, !tbaa !3
  call void @llvm.lifetime.start.p0(i64 8, ptr %10) #16
  %24 = call noundef ptr @_ZNK5boost4core17basic_string_viewIcE3endEv(ptr noundef nonnull align 8 dereferenceable(16) %6) #16
  store ptr %24, ptr %10, align 8, !tbaa !3
  call void @llvm.lifetime.start.p0(i64 8, ptr %11) #16
  %25 = call noundef ptr @_ZNK5boost4core17basic_string_viewIcE5beginEv(ptr noundef nonnull align 8 dereferenceable(16) %7) #16
  store ptr %25, ptr %11, align 8, !tbaa !3
  call void @llvm.lifetime.start.p0(i64 8, ptr %12) #16
  %26 = call noundef ptr @_ZNK5boost4core17basic_string_viewIcE3endEv(ptr noundef nonnull align 8 dereferenceable(16) %7) #16
  store ptr %26, ptr %12, align 8, !tbaa !3
  call void @llvm.lifetime.start.p0(i64 1, ptr %13) #16
  store i8 0, ptr %13, align 1, !tbaa !7
  call void @llvm.lifetime.start.p0(i64 1, ptr %14) #16
  store i8 0, ptr %14, align 1, !tbaa !7
  br label %27

27:                                               ; preds = %60, %4
  %28 = load ptr, ptr %9, align 8, !tbaa !3
  %29 = load ptr, ptr %10, align 8, !tbaa !3
  %30 = icmp ult ptr %28, %29
  br i1 %30, label %31, label %35

31:                                               ; preds = %27
  %32 = load ptr, ptr %11, align 8, !tbaa !3
  %33 = load ptr, ptr %12, align 8, !tbaa !3
  %34 = icmp ult ptr %32, %33
  br label %35

35:                                               ; preds = %31, %27
  %36 = phi i1 [ false, %27 ], [ %34, %31 ]
  br i1 %36, label %37, label %61

37:                                               ; preds = %35
  call void @llvm.lifetime.start.p0(i64 1, ptr %15) #16
  %38 = invoke noundef zeroext i1 @"_ZZN5boost4urls6detail14path_ends_withENS_4core17basic_string_viewIcEES4_ENK3$_0clERPKcS8_Rc"(ptr noundef nonnull align 1 dereferenceable(1) %8, ptr noundef nonnull align 8 dereferenceable(8) %9, ptr noundef nonnull align 8 dereferenceable(8) %10, ptr noundef nonnull align 1 dereferenceable(1) %13)
          to label %39 unwind label %79

39:                                               ; preds = %37
  %40 = zext i1 %38 to i8
  store i8 %40, ptr %15, align 1, !tbaa !23
  %41 = load i8, ptr %15, align 1, !tbaa !23, !range !25, !noundef !26
  %42 = trunc i8 %41 to i1
  br i1 %42, label %43, label %48

43:                                               ; preds = %39
  %44 = load i8, ptr %13, align 1, !tbaa !7
  %45 = sext i8 %44 to i32
  %46 = icmp eq i32 %45, 47
  br i1 %46, label %47, label %48

47:                                               ; preds = %43
  store i64 0, ptr %5, align 8
  store i32 1, ptr %16, align 4
  br label %58

48:                                               ; preds = %43, %39
  %49 = invoke noundef zeroext i1 @"_ZZN5boost4urls6detail14path_ends_withENS_4core17basic_string_viewIcEES4_ENK3$_0clERPKcS8_Rc"(ptr noundef nonnull align 1 dereferenceable(1) %8, ptr noundef nonnull align 8 dereferenceable(8) %11, ptr noundef nonnull align 8 dereferenceable(8) %12, ptr noundef nonnull align 1 dereferenceable(1) %14)
          to label %50 unwind label %79

50:                                               ; preds = %48
  %51 = load i8, ptr %13, align 1, !tbaa !7
  %52 = sext i8 %51 to i32
  %53 = load i8, ptr %14, align 1, !tbaa !7
  %54 = sext i8 %53 to i32
  %55 = icmp ne i32 %52, %54
  br i1 %55, label %56, label %57

56:                                               ; preds = %50
  store i64 0, ptr %5, align 8
  store i32 1, ptr %16, align 4
  br label %58

57:                                               ; preds = %50
  store i32 0, ptr %16, align 4
  br label %58

58:                                               ; preds = %57, %56, %47
  call void @llvm.lifetime.end.p0(i64 1, ptr %15) #16
  %59 = load i32, ptr %16, align 4
  switch i32 %59, label %77 [
    i32 0, label %60
  ]

60:                                               ; preds = %58
  br label %27, !llvm.loop !27

61:                                               ; preds = %35
  call void @llvm.lifetime.start.p0(i64 1, ptr %17) #16
  %62 = load ptr, ptr %11, align 8, !tbaa !3
  %63 = load ptr, ptr %12, align 8, !tbaa !3
  %64 = icmp eq ptr %62, %63
  %65 = zext i1 %64 to i8
  store i8 %65, ptr %17, align 1, !tbaa !23
  %66 = load i8, ptr %17, align 1, !tbaa !23, !range !25, !noundef !26
  %67 = trunc i8 %66 to i1
  br i1 %67, label %68, label %75

68:                                               ; preds = %61
  call void @llvm.lifetime.start.p0(i64 8, ptr %18) #16
  %69 = call noundef ptr @_ZNK5boost4core17basic_string_viewIcE3endEv(ptr noundef nonnull align 8 dereferenceable(16) %6) #16
  %70 = load ptr, ptr %10, align 8, !tbaa !3
  %71 = ptrtoint ptr %69 to i64
  %72 = ptrtoint ptr %70 to i64
  %73 = sub i64 %71, %72
  store i64 %73, ptr %18, align 8, !tbaa !8
  %74 = load i64, ptr %18, align 8, !tbaa !8
  store i64 %74, ptr %5, align 8
  store i32 1, ptr %16, align 4
  call void @llvm.lifetime.end.p0(i64 8, ptr %18) #16
  br label %76

75:                                               ; preds = %61
  store i64 0, ptr %5, align 8
  store i32 1, ptr %16, align 4
  br label %76

76:                                               ; preds = %75, %68
  call void @llvm.lifetime.end.p0(i64 1, ptr %17) #16
  br label %77

77:                                               ; preds = %76, %58
  call void @llvm.lifetime.end.p0(i64 1, ptr %14) #16
  call void @llvm.lifetime.end.p0(i64 1, ptr %13) #16
  call void @llvm.lifetime.end.p0(i64 8, ptr %12) #16
  call void @llvm.lifetime.end.p0(i64 8, ptr %11) #16
  call void @llvm.lifetime.end.p0(i64 8, ptr %10) #16
  call void @llvm.lifetime.end.p0(i64 8, ptr %9) #16
  call void @llvm.lifetime.end.p0(i64 1, ptr %8) #16
  %78 = load i64, ptr %5, align 8
  ret i64 %78

79:                                               ; preds = %48, %37
  %80 = landingpad { ptr, i32 }
          catch ptr null
  %81 = extractvalue { ptr, i32 } %80, 0
  call void @__clang_call_terminate(ptr %81) #17
  unreachable
}