; Function Attrs: mustprogress nounwind uwtable
define hidden noundef i64 @_ZN5boost4urls6detail14path_ends_withENS_4core17basic_string_viewIcEES4_(ptr %0, i64 %1, ptr %2, i64 %3) local_unnamed_addr #3 personality ptr @__gxx_personality_v0 {
  %5 = alloca %"struct.boost::urls::encoding_opts", align 4
  %6 = alloca %"struct.boost::urls::encoding_opts", align 4
  %7 = alloca i8, align 1
  %8 = alloca i8, align 1
  %9 = getelementptr inbounds nuw i8, ptr %0, i64 %1
  %10 = getelementptr inbounds nuw i8, ptr %2, i64 %3
  call void @llvm.lifetime.start.p0(i64 1, ptr nonnull %7) #23
  store i8 0, ptr %7, align 1, !tbaa !9
  call void @llvm.lifetime.start.p0(i64 1, ptr nonnull %8) #23
  store i8 0, ptr %8, align 1, !tbaa !9
  %11 = ptrtoint ptr %0 to i64
  %12 = getelementptr inbounds i8, ptr %7, i64 1
  %13 = ptrtoint ptr %2 to i64
  %14 = getelementptr inbounds i8, ptr %8, i64 1
  br label %15

15:                                               ; preds = %45, %4
  %.027 = phi ptr [ %9, %4 ], [ %.12832, %45 ]
  %.0 = phi ptr [ %10, %4 ], [ %.1, %45 ]
  %16 = icmp ult ptr %0, %.027
  %17 = icmp ult ptr %2, %.0
  %18 = select i1 %16, i1 %17, i1 false
  br i1 %18, label %19, label %48

19:                                               ; preds = %15
  call void @llvm.lifetime.start.p0(i64 3, ptr nonnull %6)
  %20 = ptrtoint ptr %.027 to i64
  %21 = sub i64 %20, %11
  %22 = icmp slt i64 %21, 3
  br i1 %22, label %.thread, label %23

23:                                               ; preds = %19
  %24 = getelementptr inbounds i8, ptr %.027, i64 -3
  %25 = load i8, ptr %24, align 1, !tbaa !9
  %.not.i = icmp eq i8 %25, 37
  br i1 %.not.i, label %28, label %.thread

.thread:                                          ; preds = %19, %23
  %26 = getelementptr inbounds i8, ptr %.027, i64 -1
  %27 = load i8, ptr %26, align 1, !tbaa !9
  store i8 %27, ptr %7, align 1, !tbaa !9
  call void @llvm.lifetime.end.p0(i64 3, ptr nonnull %6)
  br label %32

28:                                               ; preds = %23
  call void @_ZN5boost4urls13encoding_optsC1Ebbb(ptr noundef nonnull align 1 dereferenceable(3) %6, i1 noundef zeroext false, i1 noundef zeroext false, i1 noundef zeroext false) #23
  %.0.copyload.i = load i24, ptr %6, align 4
  %29 = call noundef i64 @_ZN5boost4urls6detail13decode_unsafeEPcPKcNS_4core17basic_string_viewIcEENS0_13encoding_optsE(ptr noundef nonnull align 1 dereferenceable(1) %7, ptr noundef nonnull %12, ptr nonnull %24, i64 3, i24 %.0.copyload.i) #23
  call void @llvm.lifetime.end.p0(i64 3, ptr nonnull %6)
  %30 = load i8, ptr %7, align 1
  %31 = icmp eq i8 %30, 47
  br i1 %31, label %.critedge, label %32

32:                                               ; preds = %.thread, %28
  %33 = phi i8 [ %27, %.thread ], [ %30, %28 ]
  %.12832 = phi ptr [ %26, %.thread ], [ %24, %28 ]
  call void @llvm.lifetime.start.p0(i64 3, ptr nonnull %5)
  %34 = ptrtoint ptr %.0 to i64
  %35 = sub i64 %34, %13
  %36 = icmp slt i64 %35, 3
  br i1 %36, label %40, label %37

37:                                               ; preds = %32
  %38 = getelementptr inbounds i8, ptr %.0, i64 -3
  %39 = load i8, ptr %38, align 1, !tbaa !9
  %.not.i9 = icmp eq i8 %39, 37
  br i1 %.not.i9, label %43, label %40

40:                                               ; preds = %37, %32
  %41 = getelementptr inbounds i8, ptr %.0, i64 -1
  %42 = load i8, ptr %41, align 1, !tbaa !9
  store i8 %42, ptr %8, align 1, !tbaa !9
  br label %45

43:                                               ; preds = %37
  call void @_ZN5boost4urls13encoding_optsC1Ebbb(ptr noundef nonnull align 1 dereferenceable(3) %5, i1 noundef zeroext false, i1 noundef zeroext false, i1 noundef zeroext false) #23
  %.0.copyload.i11 = load i24, ptr %5, align 4
  %44 = call noundef i64 @_ZN5boost4urls6detail13decode_unsafeEPcPKcNS_4core17basic_string_viewIcEENS0_13encoding_optsE(ptr noundef nonnull align 1 dereferenceable(1) %8, ptr noundef nonnull %14, ptr nonnull %38, i64 3, i24 %.0.copyload.i11) #23
  %.pre = load i8, ptr %7, align 1, !tbaa !9
  %.pre37 = load i8, ptr %8, align 1, !tbaa !9
  br label %45

45:                                               ; preds = %43, %40
  %46 = phi i8 [ %42, %40 ], [ %.pre37, %43 ]
  %47 = phi i8 [ %33, %40 ], [ %.pre, %43 ]
  %.1 = phi ptr [ %41, %40 ], [ %38, %43 ]
  call void @llvm.lifetime.end.p0(i64 3, ptr nonnull %5)
  %.not = icmp eq i8 %47, %46
  br i1 %.not, label %15, label %.critedge, !llvm.loop !21

48:                                               ; preds = %15
  %49 = icmp eq ptr %2, %.0
  br i1 %49, label %50, label %.critedge

50:                                               ; preds = %48
  %51 = ptrtoint ptr %9 to i64
  %52 = ptrtoint ptr %.027 to i64
  %53 = sub i64 %51, %52
  br label %.critedge

.critedge:                                        ; preds = %28, %45, %50, %48
  %.2 = phi i64 [ %53, %50 ], [ 0, %48 ], [ 0, %45 ], [ 0, %28 ]
  call void @llvm.lifetime.end.p0(i64 1, ptr nonnull %8) #23
  call void @llvm.lifetime.end.p0(i64 1, ptr nonnull %7) #23
  ret i64 %.2
}